; Function Attrs: nounwind uwtable
define hidden noundef i32 @phpdbg_do_source(ptr nocapture noundef readonly %0) #0 {
  %2 = alloca %struct.stat, align 8
  call void @llvm.memset.p0.i64(ptr noundef nonnull align 8 dereferenceable(144) %2, i8 0, i64 144, i1 false)
  %3 = getelementptr inbounds i8, ptr %0, i64 56
  %4 = load ptr, ptr %3, align 8
  %5 = call i32 @stat(ptr noundef %4, ptr noundef nonnull %2) #24
  %.not = icmp eq i32 %5, -1
  br i1 %.not, label %8, label %6

6:                                                ; preds = %1
  %7 = load ptr, ptr %3, align 8
  tail call void @phpdbg_try_file_init(ptr noundef %7, i64 poison, i1 noundef zeroext false)
  br label %12

8:                                                ; preds = %1
  %9 = load i32, ptr getelementptr inbounds (%struct._zend_phpdbg_globals, ptr @phpdbg_globals, i64 0, i32 39, i64 1), align 4
  %10 = load ptr, ptr %3, align 8
  %11 = tail call i32 (i32, i32, ptr, ...) @phpdbg_print(i32 noundef 1, i32 noundef %9, ptr noundef nonnull @.str.154, ptr noundef %10) #24
  br label %12

12:                                               ; preds = %8, %6
  ret i32 0
}